; Function Attrs: mustprogress nofree norecurse nosync nounwind willreturn memory(argmem: read) uwtable
define noundef zeroext i1 @_Z18inputrecNvtTrotterPK10t_inputrec(ptr noundef readonly captures(none) %0) local_unnamed_addr #15 {
  %2 = getelementptr inbounds nuw i8, ptr %0, i64 4
  %3 = load i32, ptr %2, align 4, !tbaa !265
  %4 = and i32 %3, -2
  %switch = icmp eq i32 %4, 10
  br i1 %switch, label %5, label %12

5:                                                ; preds = %1
  %6 = getelementptr inbounds nuw i8, ptr %0, i64 204
  %7 = load i32, ptr %6, align 4, !tbaa !247
  %.not = icmp eq i32 %7, 4
  br i1 %.not, label %12, label %8

8:                                                ; preds = %5
  %9 = getelementptr inbounds nuw i8, ptr %0, i64 192
  %10 = load i32, ptr %9, align 8, !tbaa !242
  %11 = icmp eq i32 %10, 2
  br label %12

12:                                               ; preds = %1, %8, %5
  %13 = phi i1 [ false, %5 ], [ %11, %8 ], [ false, %1 ]
  ret i1 %13
}